; Function Attrs: nounwind sspstrong uwtable
define dso_local range(i64 1, 0) i64 @rb_check_symbol_cstr(ptr noundef %0, i64 noundef %1, ptr noundef %2) local_unnamed_addr #0 {
  %4 = alloca i32, align 4
  %5 = alloca %struct.RString, align 8
  call void @llvm.lifetime.start.p0(i64 40, ptr nonnull %5) #19
  %6 = call i64 @rb_setup_fake_str(ptr noundef nonnull %5, ptr noundef %0, i64 noundef %1, ptr noundef %2) #19
  call fastcc void @sym_check_asciionly(i64 noundef %6, i1 noundef zeroext true)
  call void @llvm.lifetime.start.p0(i64 4, ptr nonnull %4) #19
  %7 = load ptr, ptr @ruby_single_main_ractor, align 8, !tbaa !24
  %.not.i.i.i = icmp eq ptr %7, null
  br i1 %.not.i.i.i, label %8, label %rb_vm_lock_enter.exit.i

8:                                                ; preds = %3
  call void @rb_vm_lock_enter_body(ptr noundef nonnull %4) #19
  br label %rb_vm_lock_enter.exit.i

rb_vm_lock_enter.exit.i:                          ; preds = %8, %3
  %9 = call fastcc i64 @lookup_str_sym_with_lock(i64 noundef %6)
  %10 = load ptr, ptr @ruby_single_main_ractor, align 8, !tbaa !24
  %.not.i.i2.i = icmp eq ptr %10, null
  br i1 %.not.i.i2.i, label %11, label %lookup_str_sym.exit

11:                                               ; preds = %rb_vm_lock_enter.exit.i
  call void @rb_vm_lock_leave_body(ptr noundef nonnull %4) #19
  br label %lookup_str_sym.exit

lookup_str_sym.exit:                              ; preds = %rb_vm_lock_enter.exit.i, %11
  call void @llvm.lifetime.end.p0(i64 4, ptr nonnull %4) #19
  %.not = icmp eq i64 %9, 0
  %. = select i1 %.not, i64 4, i64 %9
  call void @llvm.lifetime.end.p0(i64 40, ptr nonnull %5) #19
  ret i64 %.
}